(dp0
S'HICO_train2015_00000001.jpg'
p1
(lp2
(lp3
VHICO_train2015_00000001.jpg
p4
a(lp5
I155
aa(lp6
F206.0
aF33.0
aF427.0
aF306.0
aa(lp7
I61
aI100
aI571
aI401
aaVhico-train
p8
aI4
aF1.0
aa(lp9
g4
a(lp10
I154
aa(lp11
F213.0
aF20.0
aF438.0
aF357.0
aa(lp12
I77
aI115
aI583
aI396
aag8
aI4
aF1.0
aa(lp13
g4
a(lp14
I153
aa(lp15
F208.0
aF33.0
aF427.0
aF300.0
aa(lp16
I59
aI98
aI572
aI405
aag8
aI4
aF1.0
aa(lp17
g4
a(lp18
I156
aa(lp19
F209.0
aF26.0
aF444.0
aF317.0
aa(lp20
I59
aI99
aI579
aI395
aag8
aI4
aF1.0
aas.